; Function Attrs: mustprogress uwtable
define internal { ptr, i64 } @_ZNK12_GLOBAL__N_116itanium_demangle13QualifiedName11getBaseNameEv(ptr noundef nonnull readonly align 8 captures(none) dereferenceable(32) %0) unnamed_addr #2 align 2 {
  %2 = getelementptr inbounds nuw i8, ptr %0, i64 24
  %3 = load ptr, ptr %2, align 8, !tbaa !287
  %4 = load ptr, ptr %3, align 8, !tbaa !214
  %5 = getelementptr inbounds nuw i8, ptr %4, i64 40
  %6 = load ptr, ptr %5, align 8
  %7 = tail call { ptr, i64 } %6(ptr noundef nonnull align 8 dereferenceable(11) %3)
  ret { ptr, i64 } %7
}